target datalayout = "e-m:e-p270:32:32-p271:32:32-p272:64:64-i64:64-i128:128-f80:128-n8:16:32:64-S128"
target triple = "x86_64-pc-linux-gnu"

%struct.dfa = type { i32, i32, i32, i32, i32, ptr, ptr, ptr, ptr, ptr, ptr, ptr, ptr, ptr, ptr, i32, i16, i16, i8, i8 }

; Function Attrs: nounwind uwtable
define internal void @freedfa(ptr noundef %0) #0 {
  %2 = alloca ptr, align 8
  store ptr %0, ptr %2, align 8
  %3 = load ptr, ptr %2, align 8
  %4 = getelementptr inbounds nuw %struct.dfa, ptr %3, i32 0, i32 19
  %5 = load i8, ptr %4, align 1, !range !12, !noundef !13
  %6 = trunc i8 %5 to i1
  br i1 %6, label %7, label %44

7:                                                ; preds = %1
  %8 = load ptr, ptr %2, align 8
  %9 = getelementptr inbounds nuw %struct.dfa, ptr %8, i32 0, i32 5
  %10 = load ptr, ptr %9, align 8
  %11 = icmp ne ptr %10, null
  br i1 %11, label %12, label %16

12:                                               ; preds = %7
  %13 = load ptr, ptr %2, align 8
  %14 = getelementptr inbounds nuw %struct.dfa, ptr %13, i32 0, i32 5
  %15 = load ptr, ptr %14, align 8
  call void @pfree(ptr noundef %15)
  br label %16

16:                                               ; preds = %12, %7
  %17 = load ptr, ptr %2, align 8
  %18 = getelementptr inbounds nuw %struct.dfa, ptr %17, i32 0, i32 6
  %19 = load ptr, ptr %18, align 8
  %20 = icmp ne ptr %19, null
  br i1 %20, label %21, label %25

21:                                               ; preds = %16
  %22 = load ptr, ptr %2, align 8
  %23 = getelementptr inbounds nuw %struct.dfa, ptr %22, i32 0, i32 6
  %24 = load ptr, ptr %23, align 8
  call void @pfree(ptr noundef %24)
  br label %25

25:                                               ; preds = %21, %16
  %26 = load ptr, ptr %2, align 8
  %27 = getelementptr inbounds nuw %struct.dfa, ptr %26, i32 0, i32 8
  %28 = load ptr, ptr %27, align 8
  %29 = icmp ne ptr %28, null
  br i1 %29, label %30, label %34

30:                                               ; preds = %25
  %31 = load ptr, ptr %2, align 8
  %32 = getelementptr inbounds nuw %struct.dfa, ptr %31, i32 0, i32 8
  %33 = load ptr, ptr %32, align 8
  call void @pfree(ptr noundef %33)
  br label %34

34:                                               ; preds = %30, %25
  %35 = load ptr, ptr %2, align 8
  %36 = getelementptr inbounds nuw %struct.dfa, ptr %35, i32 0, i32 9
  %37 = load ptr, ptr %36, align 8
  %38 = icmp ne ptr %37, null
  br i1 %38, label %39, label %43

39:                                               ; preds = %34
  %40 = load ptr, ptr %2, align 8
  %41 = getelementptr inbounds nuw %struct.dfa, ptr %40, i32 0, i32 9
  %42 = load ptr, ptr %41, align 8
  call void @pfree(ptr noundef %42)
  br label %43

43:                                               ; preds = %39, %34
  br label %44

44:                                               ; preds = %43, %1
  %45 = load ptr, ptr %2, align 8
  %46 = getelementptr inbounds nuw %struct.dfa, ptr %45, i32 0, i32 18
  %47 = load i8, ptr %46, align 8, !range !12, !noundef !13
  %48 = trunc i8 %47 to i1
  br i1 %48, label %49, label %51

49:                                               ; preds = %44
  %50 = load ptr, ptr %2, align 8
  call void @pfree(ptr noundef %50)
  br label %51

51:                                               ; preds = %49, %44
  ret void
}