; Function Attrs: nounwind uwtable
define internal fastcc void @freedfa(ptr noundef nonnull %0) unnamed_addr #0 {
  %2 = getelementptr inbounds nuw i8, ptr %0, i64 113
  %3 = load i8, ptr %2, align 1, !range !8, !noundef !9
  %4 = trunc nuw i8 %3 to i1
  br i1 %4, label %5, label %21

5:                                                ; preds = %1
  %6 = getelementptr inbounds nuw i8, ptr %0, i64 24
  %7 = load ptr, ptr %6, align 8
  %.not = icmp eq ptr %7, null
  br i1 %.not, label %9, label %8

8:                                                ; preds = %5
  tail call void @pfree(ptr noundef nonnull %7) #10
  br label %9

9:                                                ; preds = %8, %5
  %10 = getelementptr inbounds nuw i8, ptr %0, i64 32
  %11 = load ptr, ptr %10, align 8
  %.not14 = icmp eq ptr %11, null
  br i1 %.not14, label %13, label %12

12:                                               ; preds = %9
  tail call void @pfree(ptr noundef nonnull %11) #10
  br label %13

13:                                               ; preds = %12, %9
  %14 = getelementptr inbounds nuw i8, ptr %0, i64 48
  %15 = load ptr, ptr %14, align 8
  %.not15 = icmp eq ptr %15, null
  br i1 %.not15, label %17, label %16

16:                                               ; preds = %13
  tail call void @pfree(ptr noundef nonnull %15) #10
  br label %17

17:                                               ; preds = %16, %13
  %18 = getelementptr inbounds nuw i8, ptr %0, i64 56
  %19 = load ptr, ptr %18, align 8
  %.not16 = icmp eq ptr %19, null
  br i1 %.not16, label %21, label %20

20:                                               ; preds = %17
  tail call void @pfree(ptr noundef nonnull %19) #10
  br label %21

21:                                               ; preds = %17, %20, %1
  %22 = getelementptr inbounds nuw i8, ptr %0, i64 112
  %23 = load i8, ptr %22, align 8, !range !8, !noundef !9
  %24 = trunc nuw i8 %23 to i1
  br i1 %24, label %25, label %26

25:                                               ; preds = %21
  tail call void @pfree(ptr noundef nonnull %0) #10
  br label %26

26:                                               ; preds = %25, %21
  ret void
}